target datalayout = "e-m:e-p270:32:32-p271:32:32-p272:64:64-i64:64-i128:128-f80:128-n8:16:32:64-S128"
target triple = "x86_64-pc-linux-gnu"

%struct.quic_port_st = type { ptr, %struct.anon, ptr, ptr, ptr, ptr, ptr, ptr, %struct.ossl_list_st_ch, %struct.ossl_list_st_incoming_ch, ptr, ptr, ptr, ptr, i8, i8, i16, ptr }
%struct.anon = type { ptr, ptr }
%struct.ossl_list_st_ch = type { ptr, ptr, i64 }
%struct.ossl_list_st_incoming_ch = type { ptr, ptr, i64 }
%struct.quic_engine_st = type { ptr, ptr, ptr, ptr, ptr, %struct.quic_reactor_st, %struct.ossl_list_st_port, i8 }
%struct.quic_reactor_st = type { %struct.bio_poll_descriptor_st, %struct.bio_poll_descriptor_st, %struct.OSSL_TIME, ptr, ptr, ptr, %struct.rio_notifier_st, ptr, i64, i8 }
%struct.bio_poll_descriptor_st = type { i32, %union.anon.6 }
%union.anon.6 = type { ptr }
%struct.OSSL_TIME = type { i64 }
%struct.rio_notifier_st = type { i32, i32 }
%struct.ossl_list_st_port = type { ptr, ptr, i64 }
%struct.quic_channel_st = type { ptr, %struct.anon.0, %struct.anon.1, ptr, ptr, ptr, ptr, ptr, ptr, ptr, i64, %union.bio_addr_st, ptr, ptr, ptr, %struct.quic_txfc_st, %struct.quic_rxfc_st, [3 x %struct.quic_rxfc_st], %struct.quic_rxfc_st, %struct.quic_rxfc_st, %struct.quic_stream_map_st, %struct.ossl_statm_st, ptr, ptr, ptr, ptr, ptr, ptr, ptr, ptr, [3 x ptr], [3 x ptr], %struct.quic_conn_id_st, %struct.quic_conn_id_st, %struct.quic_conn_id_st, %struct.quic_conn_id_st, %struct.quic_conn_id_st, %struct.quic_conn_id_st, i64, i64, i64, i64, i64, i64, i64, i64, i64, i64, i8, i16, ptr, i64, i64, i64, i64, i64, i64, i64, i64, i64, i64, i64, i64, i64, %struct.quic_terminate_cause_st, %struct.OSSL_TIME, %struct.OSSL_TIME, %struct.OSSL_TIME, %struct.OSSL_TIME, %struct.OSSL_TIME, i64, i64, i64, ptr, ptr, i64, ptr }
%struct.anon.0 = type { ptr, ptr }
%struct.anon.1 = type { ptr, ptr }
%union.bio_addr_st = type { %struct.sockaddr_in6, [84 x i8] }
%struct.sockaddr_in6 = type { i16, i16, i32, %struct.in6_addr, i32 }
%struct.in6_addr = type { %union.anon }
%union.anon = type { [4 x i32] }
%struct.quic_txfc_st = type { ptr, i64, i64, i8 }
%struct.quic_rxfc_st = type { i64, i64, i64, i64, i64, i64, i64, %struct.OSSL_TIME, ptr, ptr, ptr, i8, i8, i8, i8 }
%struct.quic_stream_map_st = type { ptr, %struct.quic_stream_list_node_st, %struct.quic_stream_list_node_st, %struct.quic_stream_list_node_st, i64, i64, i64, i64, i64, ptr, ptr, ptr, ptr, ptr, i32 }
%struct.quic_stream_list_node_st = type { ptr, ptr }
%struct.ossl_statm_st = type { %struct.OSSL_TIME, %struct.OSSL_TIME, %struct.OSSL_TIME, %struct.OSSL_TIME, i8 }
%struct.quic_conn_id_st = type { i8, [20 x i8] }
%struct.quic_terminate_cause_st = type { i64, i64, ptr, i64, i8 }
%struct.validation_token = type { %struct.OSSL_TIME, %struct.quic_conn_id_st, %struct.quic_conn_id_st, i64, ptr, i8 }

@.str = private unnamed_addr constant [32 x i8] c"../openssl/ssl/quic/quic_port.c\00", align 1

; Function Attrs: nounwind uwtable
define internal void @cleanup_validation_token(ptr noundef %0) #0 {
  %2 = alloca ptr, align 8
  store ptr %0, ptr %2, align 8, !tbaa !244
  %3 = load ptr, ptr %2, align 8, !tbaa !244
  %4 = getelementptr inbounds nuw %struct.validation_token, ptr %3, i32 0, i32 4
  %5 = load ptr, ptr %4, align 8, !tbaa !236
  call void @CRYPTO_free(ptr noundef %5, ptr noundef @.str, i32 noundef 798)
  ret void
}

; Function Attrs: nounwind uwtable
define internal i32 @generate_token(ptr noundef %0, ptr noundef byval(%struct.quic_conn_id_st) align 8 %1, ptr noundef byval(%struct.quic_conn_id_st) align 8 %2, ptr noundef %3, i32 noundef %4) #0 {
  %6 = alloca i32, align 4
  %7 = alloca ptr, align 8
  %8 = alloca ptr, align 8
  %9 = alloca i32, align 4
  %10 = alloca %struct.OSSL_TIME, align 8
  store ptr %0, ptr %7, align 8, !tbaa !218
  store ptr %3, ptr %8, align 8, !tbaa !244
  store i32 %4, ptr %9, align 4, !tbaa !41
  %11 = load i32, ptr %9, align 4, !tbaa !41
  %12 = trunc i32 %11 to i8
  %13 = load ptr, ptr %8, align 8, !tbaa !244
  %14 = getelementptr inbounds nuw %struct.validation_token, ptr %13, i32 0, i32 5
  store i8 %12, ptr %14, align 8, !tbaa !233
  %15 = load ptr, ptr %8, align 8, !tbaa !244
  %16 = getelementptr inbounds nuw %struct.validation_token, ptr %15, i32 0, i32 0
  call void @llvm.lifetime.start.p0(i64 8, ptr %10) #8
  %17 = call i64 @ossl_time_now()
  %18 = getelementptr inbounds nuw %struct.OSSL_TIME, ptr %10, i32 0, i32 0
  store i64 %17, ptr %18, align 8
  call void @llvm.memcpy.p0.p0.i64(ptr align 8 %16, ptr align 8 %10, i64 8, i1 false), !tbaa.struct !191
  call void @llvm.lifetime.end.p0(i64 8, ptr %10) #8
  %19 = load ptr, ptr %8, align 8, !tbaa !244
  %20 = getelementptr inbounds nuw %struct.validation_token, ptr %19, i32 0, i32 4
  store ptr null, ptr %20, align 8, !tbaa !236
  %21 = load ptr, ptr %8, align 8, !tbaa !244
  %22 = getelementptr inbounds nuw %struct.validation_token, ptr %21, i32 0, i32 1
  call void @llvm.memcpy.p0.p0.i64(ptr align 8 %22, ptr align 8 %1, i64 21, i1 false), !tbaa.struct !222
  %23 = load ptr, ptr %8, align 8, !tbaa !244
  %24 = getelementptr inbounds nuw %struct.validation_token, ptr %23, i32 0, i32 2
  call void @llvm.memcpy.p0.p0.i64(ptr align 1 %24, ptr align 8 %2, i64 21, i1 false), !tbaa.struct !222
  %25 = load ptr, ptr %7, align 8, !tbaa !218
  %26 = load ptr, ptr %8, align 8, !tbaa !244
  %27 = getelementptr inbounds nuw %struct.validation_token, ptr %26, i32 0, i32 3
  %28 = call i32 @BIO_ADDR_rawaddress(ptr noundef %25, ptr noundef null, ptr noundef %27)
  %29 = icmp ne i32 %28, 0
  br i1 %29, label %30, label %52

30:                                               ; preds = %5
  %31 = load ptr, ptr %8, align 8, !tbaa !244
  %32 = getelementptr inbounds nuw %struct.validation_token, ptr %31, i32 0, i32 3
  %33 = load i64, ptr %32, align 8, !tbaa !235
  %34 = icmp eq i64 %33, 0
  br i1 %34, label %52, label %35

35:                                               ; preds = %30
  %36 = load ptr, ptr %8, align 8, !tbaa !244
  %37 = getelementptr inbounds nuw %struct.validation_token, ptr %36, i32 0, i32 3
  %38 = load i64, ptr %37, align 8, !tbaa !235
  %39 = call noalias ptr @CRYPTO_malloc(i64 noundef %38, ptr noundef @.str, i32 noundef 824)
  %40 = load ptr, ptr %8, align 8, !tbaa !244
  %41 = getelementptr inbounds nuw %struct.validation_token, ptr %40, i32 0, i32 4
  store ptr %39, ptr %41, align 8, !tbaa !236
  %42 = icmp eq ptr %39, null
  br i1 %42, label %52, label %43

43:                                               ; preds = %35
  %44 = load ptr, ptr %7, align 8, !tbaa !218
  %45 = load ptr, ptr %8, align 8, !tbaa !244
  %46 = getelementptr inbounds nuw %struct.validation_token, ptr %45, i32 0, i32 4
  %47 = load ptr, ptr %46, align 8, !tbaa !236
  %48 = load ptr, ptr %8, align 8, !tbaa !244
  %49 = getelementptr inbounds nuw %struct.validation_token, ptr %48, i32 0, i32 3
  %50 = call i32 @BIO_ADDR_rawaddress(ptr noundef %44, ptr noundef %47, ptr noundef %49)
  %51 = icmp ne i32 %50, 0
  br i1 %51, label %54, label %52

52:                                               ; preds = %43, %35, %30, %5
  %53 = load ptr, ptr %8, align 8, !tbaa !244
  call void @cleanup_validation_token(ptr noundef %53)
  store i32 0, ptr %6, align 4
  br label %55

54:                                               ; preds = %43
  store i32 1, ptr %6, align 4
  br label %55

55:                                               ; preds = %54, %52
  %56 = load i32, ptr %6, align 4
  ret i32 %56
}

; Function Attrs: nounwind uwtable
define internal void @generate_new_token(ptr noundef %0, ptr noundef %1) #0 {
  %3 = alloca ptr, align 8
  %4 = alloca ptr, align 8
  %5 = alloca %struct.quic_conn_id_st, align 8
  %6 = alloca %struct.validation_token, align 8
  %7 = alloca [197 x i8], align 16
  %8 = alloca ptr, align 8
  %9 = alloca i64, align 8
  %10 = alloca i64, align 8
  %11 = alloca i32, align 4
  store ptr %0, ptr %3, align 8, !tbaa !67
  store ptr %1, ptr %4, align 8, !tbaa !218
  call void @llvm.lifetime.start.p0(i64 21, ptr %5) #8
  call void @llvm.memset.p0.i64(ptr align 1 %5, i8 0, i64 21, i1 false)
  call void @llvm.lifetime.start.p0(i64 80, ptr %6) #8
  call void @llvm.lifetime.start.p0(i64 197, ptr %7) #8
  call void @llvm.lifetime.start.p0(i64 8, ptr %8) #8
  call void @llvm.lifetime.start.p0(i64 8, ptr %9) #8
  call void @llvm.lifetime.start.p0(i64 8, ptr %10) #8
  store i64 0, ptr %10, align 8, !tbaa !36
  %12 = load ptr, ptr %3, align 8, !tbaa !67
  %13 = getelementptr inbounds nuw %struct.quic_channel_st, ptr %12, i32 0, i32 72
  %14 = load i64, ptr %13, align 8
  %15 = lshr i64 %14, 25
  %16 = and i64 %15, 1
  %17 = trunc i64 %16 to i32
  %18 = icmp ne i32 %17, 0
  br i1 %18, label %20, label %19

19:                                               ; preds = %2
  store i32 1, ptr %11, align 4
  br label %90

20:                                               ; preds = %2
  %21 = call noalias ptr @CRYPTO_zalloc(i64 noundef 197, ptr noundef @.str, i32 noundef 1390)
  store ptr %21, ptr %8, align 8, !tbaa !39
  %22 = load ptr, ptr %8, align 8, !tbaa !39
  %23 = icmp eq ptr %22, null
  br i1 %23, label %24, label %25

24:                                               ; preds = %20
  store i32 1, ptr %11, align 4
  br label %90

25:                                               ; preds = %20
  %26 = getelementptr inbounds nuw %struct.quic_conn_id_st, ptr %5, i32 0, i32 0
  store i8 8, ptr %26, align 1, !tbaa !205
  %27 = load ptr, ptr %3, align 8, !tbaa !67
  %28 = getelementptr inbounds nuw %struct.quic_channel_st, ptr %27, i32 0, i32 0
  %29 = load ptr, ptr %28, align 8, !tbaa !241
  %30 = getelementptr inbounds nuw %struct.quic_port_st, ptr %29, i32 0, i32 0
  %31 = load ptr, ptr %30, align 8, !tbaa !15
  %32 = getelementptr inbounds nuw %struct.quic_engine_st, ptr %31, i32 0, i32 0
  %33 = load ptr, ptr %32, align 8, !tbaa !44
  %34 = getelementptr inbounds nuw %struct.quic_conn_id_st, ptr %5, i32 0, i32 1
  %35 = getelementptr inbounds [20 x i8], ptr %34, i64 0, i64 0
  %36 = call i32 @RAND_bytes_ex(ptr noundef %33, ptr noundef %35, i64 noundef 8, i32 noundef 0)
  %37 = icmp ne i32 %36, 0
  br i1 %37, label %40, label %38

38:                                               ; preds = %25
  %39 = load ptr, ptr %8, align 8, !tbaa !39
  call void @CRYPTO_free(ptr noundef %39, ptr noundef @.str, i32 noundef 1402)
  store i32 1, ptr %11, align 4
  br label %90

40:                                               ; preds = %25
  call void @llvm.memset.p0.i64(ptr align 8 %6, i8 0, i64 80, i1 false)
  %41 = load ptr, ptr %4, align 8, !tbaa !218
  %42 = load ptr, ptr %3, align 8, !tbaa !67
  %43 = getelementptr inbounds nuw %struct.quic_channel_st, ptr %42, i32 0, i32 32
  %44 = call i32 @generate_token(ptr noundef %41, ptr noundef byval(%struct.quic_conn_id_st) align 8 %43, ptr noundef byval(%struct.quic_conn_id_st) align 8 %5, ptr noundef %6, i32 noundef 0)
  %45 = icmp ne i32 %44, 0
  br i1 %45, label %46, label %81

46:                                               ; preds = %40
  %47 = getelementptr inbounds [197 x i8], ptr %7, i64 0, i64 0
  %48 = call i32 @marshal_validation_token(ptr noundef %6, ptr noundef %47, ptr noundef %10)
  %49 = icmp ne i32 %48, 0
  br i1 %49, label %50, label %81

50:                                               ; preds = %46
  %51 = load ptr, ptr %3, align 8, !tbaa !67
  %52 = getelementptr inbounds nuw %struct.quic_channel_st, ptr %51, i32 0, i32 0
  %53 = load ptr, ptr %52, align 8, !tbaa !241
  %54 = getelementptr inbounds [197 x i8], ptr %7, i64 0, i64 0
  %55 = load i64, ptr %10, align 8, !tbaa !36
  %56 = call i32 @encrypt_validation_token(ptr noundef %53, ptr noundef %54, i64 noundef %55, ptr noundef null, ptr noundef %9)
  %57 = icmp ne i32 %56, 0
  br i1 %57, label %58, label %81

58:                                               ; preds = %50
  %59 = load i64, ptr %9, align 8, !tbaa !36
  %60 = icmp ugt i64 %59, 197
  br i1 %60, label %81, label %61

61:                                               ; preds = %58
  %62 = load ptr, ptr %3, align 8, !tbaa !67
  %63 = getelementptr inbounds nuw %struct.quic_channel_st, ptr %62, i32 0, i32 0
  %64 = load ptr, ptr %63, align 8, !tbaa !241
  %65 = getelementptr inbounds [197 x i8], ptr %7, i64 0, i64 0
  %66 = load i64, ptr %10, align 8, !tbaa !36
  %67 = load ptr, ptr %8, align 8, !tbaa !39
  %68 = call i32 @encrypt_validation_token(ptr noundef %64, ptr noundef %65, i64 noundef %66, ptr noundef %67, ptr noundef %9)
  %69 = icmp ne i32 %68, 0
  br i1 %69, label %70, label %81

70:                                               ; preds = %61
  %71 = load i64, ptr %9, align 8, !tbaa !36
  %72 = icmp uge i64 %71, 16
  %73 = zext i1 %72 to i32
  %74 = icmp ne i32 %73, 0
  %75 = xor i1 %74, true
  %76 = xor i1 %75, true
  %77 = zext i1 %76 to i32
  %78 = sext i32 %77 to i64
  %79 = call i64 @llvm.expect.i64(i64 %78, i64 1)
  %80 = icmp ne i64 %79, 0
  br i1 %80, label %83, label %81

81:                                               ; preds = %70, %61, %58, %50, %46, %40
  %82 = load ptr, ptr %8, align 8, !tbaa !39
  call void @CRYPTO_free(ptr noundef %82, ptr noundef @.str, i32 noundef 1416)
  call void @cleanup_validation_token(ptr noundef %6)
  store i32 1, ptr %11, align 4
  br label %90

83:                                               ; preds = %70
  %84 = load ptr, ptr %8, align 8, !tbaa !39
  %85 = load ptr, ptr %3, align 8, !tbaa !67
  %86 = getelementptr inbounds nuw %struct.quic_channel_st, ptr %85, i32 0, i32 9
  store ptr %84, ptr %86, align 8, !tbaa !242
  %87 = load i64, ptr %9, align 8, !tbaa !36
  %88 = load ptr, ptr %3, align 8, !tbaa !67
  %89 = getelementptr inbounds nuw %struct.quic_channel_st, ptr %88, i32 0, i32 10
  store i64 %87, ptr %89, align 8, !tbaa !243
  call void @cleanup_validation_token(ptr noundef %6)
  store i32 0, ptr %11, align 4
  br label %90

90:                                               ; preds = %83, %81, %38, %24, %19
  call void @llvm.lifetime.end.p0(i64 8, ptr %10) #8
  call void @llvm.lifetime.end.p0(i64 8, ptr %9) #8
  call void @llvm.lifetime.end.p0(i64 8, ptr %8) #8
  call void @llvm.lifetime.end.p0(i64 197, ptr %7) #8
  call void @llvm.lifetime.end.p0(i64 80, ptr %6) #8
  call void @llvm.lifetime.end.p0(i64 21, ptr %5) #8
  %91 = load i32, ptr %11, align 4
  switch i32 %91, label %93 [
    i32 0, label %92
    i32 1, label %92
  ]

92:                                               ; preds = %90, %90
  ret void

93:                                               ; preds = %90
  unreachable
}