; Function Attrs: nounwind uwtable
define internal fastcc void @generate_new_token(ptr noundef captures(none) %0, ptr noundef %1) unnamed_addr #0 {
  %3 = alloca %struct.quic_conn_id_st, align 8
  %4 = alloca %struct.quic_conn_id_st, align 8
  %5 = alloca %struct.validation_token, align 8
  %6 = alloca [197 x i8], align 16
  %7 = alloca i64, align 8
  %8 = alloca i64, align 8
  call void @llvm.lifetime.start.p0(i64 21, ptr nonnull %4) #11
  call void @llvm.memset.p0.i64(ptr noundef nonnull align 8 dereferenceable(21) %4, i8 0, i64 21, i1 false)
  call void @llvm.lifetime.start.p0(i64 80, ptr nonnull %5) #11
  call void @llvm.lifetime.start.p0(i64 197, ptr nonnull %6) #11
  call void @llvm.lifetime.start.p0(i64 8, ptr nonnull %7) #11
  call void @llvm.lifetime.start.p0(i64 8, ptr nonnull %8) #11
  store i64 0, ptr %8, align 8, !tbaa !195
  %9 = getelementptr inbounds nuw i8, ptr %0, i64 1568
  %10 = load i64, ptr %9, align 8
  %11 = and i64 %10, 33554432
  %.not = icmp eq i64 %11, 0
  br i1 %.not, label %68, label %12

12:                                               ; preds = %2
  %13 = tail call noalias ptr @CRYPTO_zalloc(i64 noundef 197, ptr noundef nonnull @.str, i32 noundef 1390) #11
  %14 = icmp eq ptr %13, null
  br i1 %14, label %68, label %15

15:                                               ; preds = %12
  store i8 8, ptr %4, align 8, !tbaa !209
  %16 = load ptr, ptr %0, align 8, !tbaa !230
  %17 = load ptr, ptr %16, align 8, !tbaa !11
  %18 = load ptr, ptr %17, align 8, !tbaa !35
  %19 = getelementptr inbounds nuw i8, ptr %4, i64 1
  %20 = call i32 @RAND_bytes_ex(ptr noundef %18, ptr noundef nonnull %19, i64 noundef 8, i32 noundef 0) #11
  %.not14 = icmp eq i32 %20, 0
  br i1 %.not14, label %21, label %22

21:                                               ; preds = %15
  call void @CRYPTO_free(ptr noundef nonnull %13, ptr noundef nonnull @.str, i32 noundef 1402) #11
  br label %68

22:                                               ; preds = %15
  %23 = getelementptr inbounds nuw i8, ptr %5, i64 48
  call void @llvm.memset.p0.i64(ptr noundef nonnull align 8 dereferenceable(80) %23, i8 0, i64 32, i1 false)
  %24 = getelementptr inbounds nuw i8, ptr %0, i64 1144
  call void @llvm.lifetime.start.p0(i64 21, ptr nonnull %3)
  call void @llvm.memcpy.p0.p0.i64(ptr noundef nonnull align 8 dereferenceable(21) %3, ptr noundef nonnull align 8 dereferenceable(21) %4, i64 21, i1 false)
  %25 = getelementptr inbounds nuw i8, ptr %5, i64 8
  call void @llvm.memcpy.p0.p0.i64(ptr noundef nonnull align 8 dereferenceable(21) %25, ptr noundef nonnull align 1 dereferenceable(21) %24, i64 21, i1 false)
  %26 = getelementptr inbounds nuw i8, ptr %5, i64 72
  store i8 0, ptr %26, align 8, !tbaa !220
  %27 = call i64 @ossl_time_now() #11
  store i64 %27, ptr %5, align 8, !tbaa !195
  %28 = getelementptr inbounds nuw i8, ptr %5, i64 64
  store ptr null, ptr %28, align 8, !tbaa !222
  %29 = getelementptr inbounds nuw i8, ptr %5, i64 29
  call void @llvm.memcpy.p0.p0.i64(ptr noundef nonnull align 1 dereferenceable(21) %29, ptr noundef nonnull readonly align 8 dereferenceable(21) %3, i64 21, i1 false), !tbaa.struct !211
  %30 = getelementptr inbounds nuw i8, ptr %5, i64 56
  %31 = call i32 @BIO_ADDR_rawaddress(ptr noundef %1, ptr noundef null, ptr noundef nonnull %30) #11
  %.not.i = icmp eq i32 %31, 0
  br i1 %.not.i, label %generate_token.exit.thread, label %32

32:                                               ; preds = %22
  %33 = load i64, ptr %30, align 8, !tbaa !223
  %34 = icmp eq i64 %33, 0
  br i1 %34, label %generate_token.exit.thread, label %35

35:                                               ; preds = %32
  %36 = call noalias ptr @CRYPTO_malloc(i64 noundef %33, ptr noundef nonnull @.str, i32 noundef 824) #11
  store ptr %36, ptr %28, align 8, !tbaa !222
  %37 = icmp eq ptr %36, null
  br i1 %37, label %generate_token.exit.thread, label %38

38:                                               ; preds = %35
  %39 = call i32 @BIO_ADDR_rawaddress(ptr noundef %1, ptr noundef nonnull %36, ptr noundef nonnull %30) #11
  %.not17.i = icmp eq i32 %39, 0
  br i1 %.not17.i, label %generate_token.exit.thread, label %40

generate_token.exit.thread:                       ; preds = %22, %32, %35, %38
  %.val.i = load ptr, ptr %28, align 8, !tbaa !222
  call void @CRYPTO_free(ptr noundef %.val.i, ptr noundef nonnull @.str, i32 noundef 798) #11
  call void @llvm.lifetime.end.p0(i64 21, ptr nonnull %3)
  br label %encrypt_validation_token.exit.thread

40:                                               ; preds = %38
  call void @llvm.lifetime.end.p0(i64 21, ptr nonnull %3)
  %41 = call fastcc i32 @marshal_validation_token(ptr noundef %5, ptr noundef %6, ptr noundef %8)
  %.not16 = icmp eq i32 %41, 0
  br i1 %.not16, label %encrypt_validation_token.exit.thread, label %42

42:                                               ; preds = %40
  %43 = load ptr, ptr %0, align 8, !tbaa !230
  %44 = load i64, ptr %8, align 8, !tbaa !195
  %45 = getelementptr inbounds nuw i8, ptr %43, i64 160
  %46 = load ptr, ptr %45, align 8, !tbaa !56
  %47 = call i32 @EVP_CIPHER_CTX_get_tag_length(ptr noundef %46) #11
  %48 = sext i32 %47 to i64
  %49 = icmp eq i32 %47, 0
  br i1 %49, label %encrypt_validation_token.exit.thread, label %50

50:                                               ; preds = %42
  %51 = load ptr, ptr %45, align 8, !tbaa !56
  %52 = call i32 @EVP_CIPHER_CTX_get_iv_length(ptr noundef %51) #11
  %53 = icmp slt i32 %52, 1
  br i1 %53, label %encrypt_validation_token.exit.thread, label %encrypt_validation_token.exit

encrypt_validation_token.exit:                    ; preds = %50
  %54 = zext nneg i32 %52 to i64
  %55 = add i64 %44, 16
  %56 = add i64 %55, %48
  %57 = add i64 %56, %54
  store i64 %57, ptr %7, align 8, !tbaa !195
  %58 = icmp ugt i64 %57, 197
  br i1 %58, label %encrypt_validation_token.exit.thread, label %59

59:                                               ; preds = %encrypt_validation_token.exit
  %60 = load ptr, ptr %0, align 8, !tbaa !230
  %61 = load i64, ptr %8, align 8, !tbaa !195
  %62 = call fastcc i32 @encrypt_validation_token(ptr noundef %60, ptr noundef %6, i64 noundef %61, ptr noundef nonnull %13, ptr noundef %7)
  %.not17 = icmp ne i32 %62, 0
  %63 = load i64, ptr %7, align 8
  %64 = icmp ugt i64 %63, 15
  %or.cond19 = select i1 %.not17, i1 %64, i1 false
  br i1 %or.cond19, label %65, label %encrypt_validation_token.exit.thread, !prof !224

encrypt_validation_token.exit.thread:             ; preds = %50, %42, %generate_token.exit.thread, %59, %encrypt_validation_token.exit, %40
  call void @CRYPTO_free(ptr noundef nonnull %13, ptr noundef nonnull @.str, i32 noundef 1416) #11
  %.val = load ptr, ptr %28, align 8, !tbaa !222
  call void @CRYPTO_free(ptr noundef %.val, ptr noundef nonnull @.str, i32 noundef 798) #11
  br label %68

65:                                               ; preds = %59
  %66 = getelementptr inbounds nuw i8, ptr %0, i64 88
  store ptr %13, ptr %66, align 8, !tbaa !231
  %67 = getelementptr inbounds nuw i8, ptr %0, i64 96
  store i64 %63, ptr %67, align 8, !tbaa !232
  %.val20 = load ptr, ptr %28, align 8, !tbaa !222
  call void @CRYPTO_free(ptr noundef %.val20, ptr noundef nonnull @.str, i32 noundef 798) #11
  br label %68

68:                                               ; preds = %12, %2, %65, %encrypt_validation_token.exit.thread, %21
  call void @llvm.lifetime.end.p0(i64 8, ptr nonnull %8) #11
  call void @llvm.lifetime.end.p0(i64 8, ptr nonnull %7) #11
  call void @llvm.lifetime.end.p0(i64 197, ptr nonnull %6) #11
  call void @llvm.lifetime.end.p0(i64 80, ptr nonnull %5) #11
  call void @llvm.lifetime.end.p0(i64 21, ptr nonnull %4) #11
  ret void
}